target datalayout = "e-m:e-p270:32:32-p271:32:32-p272:64:64-i64:64-i128:128-f80:128-n8:16:32:64-S128"
target triple = "x86_64-pc-linux-gnu"

; Function Attrs: nounwind uwtable
define void @transpose64(ptr noundef %0) #0 {
  %2 = alloca ptr, align 8
  %3 = alloca i32, align 4
  %4 = alloca i32, align 4
  %5 = alloca i64, align 8
  %6 = alloca i64, align 8
  store ptr %0, ptr %2, align 8, !tbaa !48
  call void @llvm.lifetime.start.p0(i64 4, ptr %3) #11
  call void @llvm.lifetime.start.p0(i64 4, ptr %4) #11
  call void @llvm.lifetime.start.p0(i64 8, ptr %5) #11
  call void @llvm.lifetime.start.p0(i64 8, ptr %6) #11
  store i64 4294967295, ptr %6, align 8, !tbaa !50
  store i32 32, ptr %3, align 4, !tbaa !24
  br label %7

7:                                                ; preds = %71, %1
  %8 = load i32, ptr %3, align 4, !tbaa !24
  %9 = icmp ne i32 %8, 0
  br i1 %9, label %10, label %80

10:                                               ; preds = %7
  store i32 0, ptr %4, align 4, !tbaa !24
  br label %11

11:                                               ; preds = %62, %10
  %12 = load i32, ptr %4, align 4, !tbaa !24
  %13 = icmp slt i32 %12, 64
  br i1 %13, label %14, label %70

14:                                               ; preds = %11
  %15 = load ptr, ptr %2, align 8, !tbaa !48
  %16 = load i32, ptr %4, align 4, !tbaa !24
  %17 = sext i32 %16 to i64
  %18 = getelementptr inbounds i64, ptr %15, i64 %17
  %19 = load i64, ptr %18, align 8, !tbaa !50
  %20 = load ptr, ptr %2, align 8, !tbaa !48
  %21 = load i32, ptr %4, align 4, !tbaa !24
  %22 = load i32, ptr %3, align 4, !tbaa !24
  %23 = add nsw i32 %21, %22
  %24 = sext i32 %23 to i64
  %25 = getelementptr inbounds i64, ptr %20, i64 %24
  %26 = load i64, ptr %25, align 8, !tbaa !50
  %27 = load i32, ptr %3, align 4, !tbaa !24
  %28 = zext i32 %27 to i64
  %29 = lshr i64 %26, %28
  %30 = xor i64 %19, %29
  %31 = load i64, ptr %6, align 8, !tbaa !50
  %32 = and i64 %30, %31
  store i64 %32, ptr %5, align 8, !tbaa !50
  %33 = load ptr, ptr %2, align 8, !tbaa !48
  %34 = load i32, ptr %4, align 4, !tbaa !24
  %35 = sext i32 %34 to i64
  %36 = getelementptr inbounds i64, ptr %33, i64 %35
  %37 = load i64, ptr %36, align 8, !tbaa !50
  %38 = load i64, ptr %5, align 8, !tbaa !50
  %39 = xor i64 %37, %38
  %40 = load ptr, ptr %2, align 8, !tbaa !48
  %41 = load i32, ptr %4, align 4, !tbaa !24
  %42 = sext i32 %41 to i64
  %43 = getelementptr inbounds i64, ptr %40, i64 %42
  store i64 %39, ptr %43, align 8, !tbaa !50
  %44 = load ptr, ptr %2, align 8, !tbaa !48
  %45 = load i32, ptr %4, align 4, !tbaa !24
  %46 = load i32, ptr %3, align 4, !tbaa !24
  %47 = add nsw i32 %45, %46
  %48 = sext i32 %47 to i64
  %49 = getelementptr inbounds i64, ptr %44, i64 %48
  %50 = load i64, ptr %49, align 8, !tbaa !50
  %51 = load i64, ptr %5, align 8, !tbaa !50
  %52 = load i32, ptr %3, align 4, !tbaa !24
  %53 = zext i32 %52 to i64
  %54 = shl i64 %51, %53
  %55 = xor i64 %50, %54
  %56 = load ptr, ptr %2, align 8, !tbaa !48
  %57 = load i32, ptr %4, align 4, !tbaa !24
  %58 = load i32, ptr %3, align 4, !tbaa !24
  %59 = add nsw i32 %57, %58
  %60 = sext i32 %59 to i64
  %61 = getelementptr inbounds i64, ptr %56, i64 %60
  store i64 %55, ptr %61, align 8, !tbaa !50
  br label %62

62:                                               ; preds = %14
  %63 = load i32, ptr %4, align 4, !tbaa !24
  %64 = load i32, ptr %3, align 4, !tbaa !24
  %65 = add nsw i32 %63, %64
  %66 = add nsw i32 %65, 1
  %67 = load i32, ptr %3, align 4, !tbaa !24
  %68 = xor i32 %67, -1
  %69 = and i32 %66, %68
  store i32 %69, ptr %4, align 4, !tbaa !24
  br label %11, !llvm.loop !80

70:                                               ; preds = %11
  br label %71

71:                                               ; preds = %70
  %72 = load i32, ptr %3, align 4, !tbaa !24
  %73 = ashr i32 %72, 1
  store i32 %73, ptr %3, align 4, !tbaa !24
  %74 = load i64, ptr %6, align 8, !tbaa !50
  %75 = load i64, ptr %6, align 8, !tbaa !50
  %76 = load i32, ptr %3, align 4, !tbaa !24
  %77 = zext i32 %76 to i64
  %78 = shl i64 %75, %77
  %79 = xor i64 %74, %78
  store i64 %79, ptr %6, align 8, !tbaa !50
  br label %7, !llvm.loop !81

80:                                               ; preds = %7
  call void @llvm.lifetime.end.p0(i64 8, ptr %6) #11
  call void @llvm.lifetime.end.p0(i64 8, ptr %5) #11
  call void @llvm.lifetime.end.p0(i64 4, ptr %4) #11
  call void @llvm.lifetime.end.p0(i64 4, ptr %3) #11
  ret void
}